target datalayout = "e-m:e-p270:32:32-p271:32:32-p272:64:64-i64:64-i128:128-f80:128-n8:16:32:64-S128"
target triple = "x86_64-pc-linux-gnu"

%class.Expression = type { ptr, i32, i32, ptr }
%class.ExpressionComma = type { %class.Expression, ptr, ptr }

@_ZN15ExpressionCommaC1ERK10ExpressionS2_ = dso_local unnamed_addr alias void (ptr, ptr, ptr), ptr @_ZN15ExpressionCommaC2ERK10ExpressionS2_

; Function Attrs: mustprogress uwtable
define dso_local noundef ptr @_ZNK15ExpressionComma5cloneEv(ptr noundef nonnull align 8 dereferenceable(40) %0) unnamed_addr #4 align 2 personality ptr @__gxx_personality_v0 {
  %2 = alloca ptr, align 8
  %3 = alloca ptr, align 8
  %4 = alloca i32, align 4
  store ptr %0, ptr %2, align 8, !tbaa !45
  %5 = load ptr, ptr %2, align 8
  %6 = call noalias noundef nonnull ptr @_Znwm(i64 noundef 40) #17
  %7 = getelementptr inbounds nuw %class.ExpressionComma, ptr %5, i32 0, i32 1
  %8 = load ptr, ptr %7, align 8, !tbaa !47
  %9 = load ptr, ptr %8, align 8, !tbaa !9
  %10 = getelementptr inbounds ptr, ptr %9, i64 2
  %11 = load ptr, ptr %10, align 8
  %12 = invoke noundef ptr %11(ptr noundef nonnull align 8 dereferenceable(24) %8)
          to label %13 unwind label %22

13:                                               ; preds = %1
  %14 = getelementptr inbounds nuw %class.ExpressionComma, ptr %5, i32 0, i32 2
  %15 = load ptr, ptr %14, align 8, !tbaa !49
  %16 = load ptr, ptr %15, align 8, !tbaa !9
  %17 = getelementptr inbounds ptr, ptr %16, i64 2
  %18 = load ptr, ptr %17, align 8
  %19 = invoke noundef ptr %18(ptr noundef nonnull align 8 dereferenceable(24) %15)
          to label %20 unwind label %22

20:                                               ; preds = %13
  invoke void @_ZN15ExpressionCommaC1ERK10ExpressionS2_(ptr noundef nonnull align 8 dereferenceable(40) %6, ptr noundef nonnull align 8 dereferenceable(24) %12, ptr noundef nonnull align 8 dereferenceable(24) %19)
          to label %21 unwind label %22

21:                                               ; preds = %20
  ret ptr %6

22:                                               ; preds = %20, %13, %1
  %23 = landingpad { ptr, i32 }
          cleanup
  %24 = extractvalue { ptr, i32 } %23, 0
  store ptr %24, ptr %3, align 8
  %25 = extractvalue { ptr, i32 } %23, 1
  store i32 %25, ptr %4, align 4
  call void @_ZdlPvm(ptr noundef %6, i64 noundef 40) #18
  br label %26

26:                                               ; preds = %22
  %27 = load ptr, ptr %3, align 8
  %28 = load i32, ptr %4, align 4
  %29 = insertvalue { ptr, i32 } poison, ptr %27, 0
  %30 = insertvalue { ptr, i32 } %29, i32 %28, 1
  resume { ptr, i32 } %30
}