; Function Attrs: mustprogress uwtable
define dso_local noundef nonnull ptr @_ZNK15ExpressionComma5cloneEv(ptr noundef nonnull readonly align 8 captures(none) dereferenceable(40) %0) unnamed_addr #3 align 2 personality ptr @__gxx_personality_v0 {
  %2 = tail call noalias noundef nonnull dereferenceable(40) ptr @_Znwm(i64 noundef 40) #14
  %3 = getelementptr inbounds nuw i8, ptr %0, i64 24
  %4 = load ptr, ptr %3, align 8, !tbaa !41
  %5 = load ptr, ptr %4, align 8, !tbaa !4
  %6 = getelementptr inbounds nuw i8, ptr %5, i64 16
  %7 = load ptr, ptr %6, align 8
  %8 = invoke noundef ptr %7(ptr noundef nonnull align 8 dereferenceable(24) %4)
          to label %9 unwind label %20

9:                                                ; preds = %1
  %10 = getelementptr inbounds nuw i8, ptr %0, i64 32
  %11 = load ptr, ptr %10, align 8, !tbaa !43
  %12 = load ptr, ptr %11, align 8, !tbaa !4
  %13 = getelementptr inbounds nuw i8, ptr %12, i64 16
  %14 = load ptr, ptr %13, align 8
  %15 = invoke noundef ptr %14(ptr noundef nonnull align 8 dereferenceable(24) %11)
          to label %16 unwind label %20

16:                                               ; preds = %9
  invoke void @_ZN10ExpressionC2E9eTermType(ptr noundef nonnull align 8 dereferenceable(40) %2, i32 noundef 4)
          to label %17 unwind label %20

17:                                               ; preds = %16
  store ptr getelementptr inbounds nuw inrange(-16, 176) (i8, ptr @_ZTV15ExpressionComma, i64 16), ptr %2, align 8, !tbaa !4
  %18 = getelementptr inbounds nuw i8, ptr %2, i64 24
  store ptr %8, ptr %18, align 8, !tbaa !39
  %19 = getelementptr inbounds nuw i8, ptr %2, i64 32
  store ptr %15, ptr %19, align 8, !tbaa !39
  ret ptr %2

20:                                               ; preds = %16, %9, %1
  %21 = landingpad { ptr, i32 }
          cleanup
  tail call void @_ZdlPvm(ptr noundef nonnull %2, i64 noundef 40) #15
  resume { ptr, i32 } %21
}